target datalayout = "e-m:e-p270:32:32-p271:32:32-p272:64:64-i64:64-i128:128-f80:128-n8:16:32:64-S128"
target triple = "x86_64-pc-linux-gnu"

%struct.Vec_Ptr_t_ = type { i32, i32, ptr }
%struct.Cmd_AutoData_t_ = type { ptr, ptr, i32, i32, i32, i32 }

; Function Attrs: inlinehint nounwind uwtable
define internal ptr @Vec_PtrEntry(ptr noundef %0, i32 noundef %1) #3 {
  %3 = alloca ptr, align 8
  %4 = alloca i32, align 4
  store ptr %0, ptr %3, align 8, !tbaa !17
  store i32 %1, ptr %4, align 4, !tbaa !19
  %5 = load ptr, ptr %3, align 8, !tbaa !17
  %6 = getelementptr inbounds nuw %struct.Vec_Ptr_t_, ptr %5, i32 0, i32 2
  %7 = load ptr, ptr %6, align 8, !tbaa !26
  %8 = load i32, ptr %4, align 4, !tbaa !19
  %9 = sext i32 %8 to i64
  %10 = getelementptr inbounds ptr, ptr %7, i64 %9
  %11 = load ptr, ptr %10, align 8, !tbaa !27
  ret ptr %11
}

; Function Attrs: inlinehint nounwind uwtable
define internal void @Vec_PtrFree(ptr noundef %0) #3 {
  %2 = alloca ptr, align 8
  store ptr %0, ptr %2, align 8, !tbaa !17
  %3 = load ptr, ptr %2, align 8, !tbaa !17
  %4 = getelementptr inbounds nuw %struct.Vec_Ptr_t_, ptr %3, i32 0, i32 2
  %5 = load ptr, ptr %4, align 8, !tbaa !26
  %6 = icmp ne ptr %5, null
  br i1 %6, label %7, label %13

7:                                                ; preds = %1
  %8 = load ptr, ptr %2, align 8, !tbaa !17
  %9 = getelementptr inbounds nuw %struct.Vec_Ptr_t_, ptr %8, i32 0, i32 2
  %10 = load ptr, ptr %9, align 8, !tbaa !26
  call void @free(ptr noundef %10) #14
  %11 = load ptr, ptr %2, align 8, !tbaa !17
  %12 = getelementptr inbounds nuw %struct.Vec_Ptr_t_, ptr %11, i32 0, i32 2
  store ptr null, ptr %12, align 8, !tbaa !26
  br label %14

13:                                               ; preds = %1
  br label %14

14:                                               ; preds = %13, %7
  %15 = load ptr, ptr %2, align 8, !tbaa !17
  %16 = icmp ne ptr %15, null
  br i1 %16, label %17, label %19

17:                                               ; preds = %14
  %18 = load ptr, ptr %2, align 8, !tbaa !17
  call void @free(ptr noundef %18) #14
  store ptr null, ptr %2, align 8, !tbaa !17
  br label %20

19:                                               ; preds = %14
  br label %20

20:                                               ; preds = %19, %17
  ret void
}

; Function Attrs: inlinehint nounwind uwtable
define internal ptr @Vec_PtrPop(ptr noundef %0) #3 {
  %2 = alloca ptr, align 8
  store ptr %0, ptr %2, align 8, !tbaa !17
  %3 = load ptr, ptr %2, align 8, !tbaa !17
  %4 = getelementptr inbounds nuw %struct.Vec_Ptr_t_, ptr %3, i32 0, i32 2
  %5 = load ptr, ptr %4, align 8, !tbaa !26
  %6 = load ptr, ptr %2, align 8, !tbaa !17
  %7 = getelementptr inbounds nuw %struct.Vec_Ptr_t_, ptr %6, i32 0, i32 1
  %8 = load i32, ptr %7, align 4, !tbaa !24
  %9 = add nsw i32 %8, -1
  store i32 %9, ptr %7, align 4, !tbaa !24
  %10 = sext i32 %9 to i64
  %11 = getelementptr inbounds ptr, ptr %5, i64 %10
  %12 = load ptr, ptr %11, align 8, !tbaa !27
  ret ptr %12
}

; Function Attrs: inlinehint nounwind uwtable
define internal i32 @Vec_PtrSize(ptr noundef %0) #3 {
  %2 = alloca ptr, align 8
  store ptr %0, ptr %2, align 8, !tbaa !17
  %3 = load ptr, ptr %2, align 8, !tbaa !17
  %4 = getelementptr inbounds nuw %struct.Vec_Ptr_t_, ptr %3, i32 0, i32 1
  %5 = load i32, ptr %4, align 4, !tbaa !24
  ret i32 %5
}

; Function Attrs: inlinehint nounwind uwtable
define internal ptr @Vec_PtrDup(ptr noundef %0) #3 {
  %2 = alloca ptr, align 8
  %3 = alloca ptr, align 8
  store ptr %0, ptr %2, align 8, !tbaa !17
  call void @llvm.lifetime.start.p0(i64 8, ptr %3) #14
  %4 = call noalias ptr @malloc(i64 noundef 16) #16
  store ptr %4, ptr %3, align 8, !tbaa !17
  %5 = load ptr, ptr %2, align 8, !tbaa !17
  %6 = getelementptr inbounds nuw %struct.Vec_Ptr_t_, ptr %5, i32 0, i32 1
  %7 = load i32, ptr %6, align 4, !tbaa !24
  %8 = load ptr, ptr %3, align 8, !tbaa !17
  %9 = getelementptr inbounds nuw %struct.Vec_Ptr_t_, ptr %8, i32 0, i32 1
  store i32 %7, ptr %9, align 4, !tbaa !24
  %10 = load ptr, ptr %2, align 8, !tbaa !17
  %11 = getelementptr inbounds nuw %struct.Vec_Ptr_t_, ptr %10, i32 0, i32 0
  %12 = load i32, ptr %11, align 8, !tbaa !44
  %13 = load ptr, ptr %3, align 8, !tbaa !17
  %14 = getelementptr inbounds nuw %struct.Vec_Ptr_t_, ptr %13, i32 0, i32 0
  store i32 %12, ptr %14, align 8, !tbaa !44
  %15 = load ptr, ptr %3, align 8, !tbaa !17
  %16 = getelementptr inbounds nuw %struct.Vec_Ptr_t_, ptr %15, i32 0, i32 0
  %17 = load i32, ptr %16, align 8, !tbaa !44
  %18 = icmp ne i32 %17, 0
  br i1 %18, label %19, label %26

19:                                               ; preds = %1
  %20 = load ptr, ptr %3, align 8, !tbaa !17
  %21 = getelementptr inbounds nuw %struct.Vec_Ptr_t_, ptr %20, i32 0, i32 0
  %22 = load i32, ptr %21, align 8, !tbaa !44
  %23 = sext i32 %22 to i64
  %24 = mul i64 8, %23
  %25 = call noalias ptr @malloc(i64 noundef %24) #16
  br label %27

26:                                               ; preds = %1
  br label %27

27:                                               ; preds = %26, %19
  %28 = phi ptr [ %25, %19 ], [ null, %26 ]
  %29 = load ptr, ptr %3, align 8, !tbaa !17
  %30 = getelementptr inbounds nuw %struct.Vec_Ptr_t_, ptr %29, i32 0, i32 2
  store ptr %28, ptr %30, align 8, !tbaa !26
  %31 = load ptr, ptr %3, align 8, !tbaa !17
  %32 = getelementptr inbounds nuw %struct.Vec_Ptr_t_, ptr %31, i32 0, i32 2
  %33 = load ptr, ptr %32, align 8, !tbaa !26
  %34 = load ptr, ptr %2, align 8, !tbaa !17
  %35 = getelementptr inbounds nuw %struct.Vec_Ptr_t_, ptr %34, i32 0, i32 2
  %36 = load ptr, ptr %35, align 8, !tbaa !26
  %37 = load ptr, ptr %2, align 8, !tbaa !17
  %38 = getelementptr inbounds nuw %struct.Vec_Ptr_t_, ptr %37, i32 0, i32 1
  %39 = load i32, ptr %38, align 4, !tbaa !24
  %40 = sext i32 %39 to i64
  %41 = mul i64 8, %40
  call void @llvm.memcpy.p0.p0.i64(ptr align 8 %33, ptr align 8 %36, i64 %41, i1 false)
  %42 = load ptr, ptr %3, align 8, !tbaa !17
  call void @llvm.lifetime.end.p0(i64 8, ptr %3) #14
  ret ptr %42
}

; Function Attrs: nounwind uwtable
define i32 @Cmd_RunAutoTunerEvalSimple(ptr noundef %0, ptr noundef %1) #0 {
  %3 = alloca ptr, align 8
  %4 = alloca ptr, align 8
  %5 = alloca ptr, align 8
  %6 = alloca i32, align 4
  %7 = alloca i32, align 4
  store ptr %0, ptr %3, align 8, !tbaa !17
  store ptr %1, ptr %4, align 8, !tbaa !3
  call void @llvm.lifetime.start.p0(i64 8, ptr %5) #14
  call void @llvm.lifetime.start.p0(i64 4, ptr %6) #14
  call void @llvm.lifetime.start.p0(i64 4, ptr %7) #14
  store i32 0, ptr %7, align 4, !tbaa !19
  store i32 0, ptr %6, align 4, !tbaa !19
  br label %8

8:                                                ; preds = %25, %2
  %9 = load i32, ptr %6, align 4, !tbaa !19
  %10 = load ptr, ptr %3, align 8, !tbaa !17
  %11 = call i32 @Vec_PtrSize(ptr noundef %10)
  %12 = icmp slt i32 %9, %11
  br i1 %12, label %13, label %17

13:                                               ; preds = %8
  %14 = load ptr, ptr %3, align 8, !tbaa !17
  %15 = load i32, ptr %6, align 4, !tbaa !19
  %16 = call ptr @Vec_PtrEntry(ptr noundef %14, i32 noundef %15)
  store ptr %16, ptr %5, align 8, !tbaa !20
  br label %17

17:                                               ; preds = %13, %8
  %18 = phi i1 [ false, %8 ], [ true, %13 ]
  br i1 %18, label %19, label %28

19:                                               ; preds = %17
  %20 = load ptr, ptr %5, align 8, !tbaa !20
  %21 = load ptr, ptr %4, align 8, !tbaa !3
  %22 = call i32 @Gia_ManSatokoCallOne(ptr noundef %20, ptr noundef %21, i32 noundef -1)
  %23 = load i32, ptr %7, align 4, !tbaa !19
  %24 = add nsw i32 %23, %22
  store i32 %24, ptr %7, align 4, !tbaa !19
  br label %25

25:                                               ; preds = %19
  %26 = load i32, ptr %6, align 4, !tbaa !19
  %27 = add nsw i32 %26, 1
  store i32 %27, ptr %6, align 4, !tbaa !19
  br label %8, !llvm.loop !22

28:                                               ; preds = %17
  %29 = load i32, ptr %7, align 4, !tbaa !19
  call void @llvm.lifetime.end.p0(i64 4, ptr %7) #14
  call void @llvm.lifetime.end.p0(i64 4, ptr %6) #14
  call void @llvm.lifetime.end.p0(i64 8, ptr %5) #14
  ret i32 %29
}

; Function Attrs: nounwind uwtable
define i32 @Cmd_RunAutoTunerEval(ptr noundef %0, ptr noundef %1, i32 noundef %2) #0 {
  %4 = alloca i32, align 4
  %5 = alloca ptr, align 8
  %6 = alloca ptr, align 8
  %7 = alloca i32, align 4
  %8 = alloca [100 x %struct.Cmd_AutoData_t_], align 16
  %9 = alloca [100 x i64], align 16
  %10 = alloca i32, align 4
  %11 = alloca i32, align 4
  %12 = alloca i32, align 4
  %13 = alloca i32, align 4
  %14 = alloca ptr, align 8
  %15 = alloca i32, align 4
  store ptr %0, ptr %5, align 8, !tbaa !17
  store ptr %1, ptr %6, align 8, !tbaa !3
  store i32 %2, ptr %7, align 4, !tbaa !19
  call void @llvm.lifetime.start.p0(i64 3200, ptr %8) #14
  call void @llvm.lifetime.start.p0(i64 800, ptr %9) #14
  call void @llvm.lifetime.start.p0(i64 4, ptr %10) #14
  call void @llvm.lifetime.start.p0(i64 4, ptr %11) #14
  call void @llvm.lifetime.start.p0(i64 4, ptr %12) #14
  store i32 1, ptr %12, align 4, !tbaa !19
  call void @llvm.lifetime.start.p0(i64 4, ptr %13) #14
  store i32 0, ptr %13, align 4, !tbaa !19
  call void @llvm.lifetime.start.p0(i64 8, ptr %14) #14
  %16 = load i32, ptr %7, align 4, !tbaa !19
  %17 = icmp eq i32 %16, 1
  br i1 %17, label %18, label %22

18:                                               ; preds = %3
  %19 = load ptr, ptr %5, align 8, !tbaa !17
  %20 = load ptr, ptr %6, align 8, !tbaa !3
  %21 = call i32 @Cmd_RunAutoTunerEvalSimple(ptr noundef %19, ptr noundef %20)
  store i32 %21, ptr %4, align 4
  store i32 1, ptr %15, align 4
  br label %150

22:                                               ; preds = %3
  %23 = load i32, ptr %7, align 4, !tbaa !19
  %24 = add nsw i32 %23, -1
  store i32 %24, ptr %7, align 4, !tbaa !19
  store i32 0, ptr %10, align 4, !tbaa !19
  br label %25

25:                                               ; preds = %65, %22
  %26 = load i32, ptr %10, align 4, !tbaa !19
  %27 = load i32, ptr %7, align 4, !tbaa !19
  %28 = icmp slt i32 %26, %27
  br i1 %28, label %29, label %68

29:                                               ; preds = %25
  %30 = load i32, ptr %10, align 4, !tbaa !19
  %31 = sext i32 %30 to i64
  %32 = getelementptr inbounds [100 x %struct.Cmd_AutoData_t_], ptr %8, i64 0, i64 %31
  %33 = getelementptr inbounds nuw %struct.Cmd_AutoData_t_, ptr %32, i32 0, i32 0
  store ptr null, ptr %33, align 16, !tbaa !33
  %34 = load ptr, ptr %6, align 8, !tbaa !3
  %35 = load i32, ptr %10, align 4, !tbaa !19
  %36 = sext i32 %35 to i64
  %37 = getelementptr inbounds [100 x %struct.Cmd_AutoData_t_], ptr %8, i64 0, i64 %36
  %38 = getelementptr inbounds nuw %struct.Cmd_AutoData_t_, ptr %37, i32 0, i32 1
  store ptr %34, ptr %38, align 8, !tbaa !35
  %39 = load i32, ptr %10, align 4, !tbaa !19
  %40 = load i32, ptr %10, align 4, !tbaa !19
  %41 = sext i32 %40 to i64
  %42 = getelementptr inbounds [100 x %struct.Cmd_AutoData_t_], ptr %8, i64 0, i64 %41
  %43 = getelementptr inbounds nuw %struct.Cmd_AutoData_t_, ptr %42, i32 0, i32 2
  store i32 %39, ptr %43, align 16, !tbaa !38
  %44 = load i32, ptr %10, align 4, !tbaa !19
  %45 = sext i32 %44 to i64
  %46 = getelementptr inbounds [100 x %struct.Cmd_AutoData_t_], ptr %8, i64 0, i64 %45
  %47 = getelementptr inbounds nuw %struct.Cmd_AutoData_t_, ptr %46, i32 0, i32 3
  store i32 -1, ptr %47, align 4, !tbaa !39
  %48 = load i32, ptr %10, align 4, !tbaa !19
  %49 = sext i32 %48 to i64
  %50 = getelementptr inbounds [100 x %struct.Cmd_AutoData_t_], ptr %8, i64 0, i64 %49
  %51 = getelementptr inbounds nuw %struct.Cmd_AutoData_t_, ptr %50, i32 0, i32 4
  store i32 0, ptr %51, align 8, !tbaa !37
  %52 = load i32, ptr %10, align 4, !tbaa !19
  %53 = sext i32 %52 to i64
  %54 = getelementptr inbounds [100 x %struct.Cmd_AutoData_t_], ptr %8, i64 0, i64 %53
  %55 = getelementptr inbounds nuw %struct.Cmd_AutoData_t_, ptr %54, i32 0, i32 5
  store i32 -1, ptr %55, align 4, !tbaa !36
  %56 = getelementptr inbounds [100 x i64], ptr %9, i64 0, i64 0
  %57 = load i32, ptr %10, align 4, !tbaa !19
  %58 = sext i32 %57 to i64
  %59 = getelementptr inbounds i64, ptr %56, i64 %58
  %60 = getelementptr inbounds [100 x %struct.Cmd_AutoData_t_], ptr %8, i64 0, i64 0
  %61 = load i32, ptr %10, align 4, !tbaa !19
  %62 = sext i32 %61 to i64
  %63 = getelementptr inbounds %struct.Cmd_AutoData_t_, ptr %60, i64 %62
  %64 = call i32 @pthread_create(ptr noundef %59, ptr noundef null, ptr noundef @Cmd_RunAutoTunerEvalWorkerThread, ptr noundef %63) #14
  store i32 %64, ptr %11, align 4, !tbaa !19
  br label %65

65:                                               ; preds = %29
  %66 = load i32, ptr %10, align 4, !tbaa !19
  %67 = add nsw i32 %66, 1
  store i32 %67, ptr %10, align 4, !tbaa !19
  br label %25, !llvm.loop !40

68:                                               ; preds = %25
  %69 = load ptr, ptr %5, align 8, !tbaa !17
  %70 = call ptr @Vec_PtrDup(ptr noundef %69)
  store ptr %70, ptr %14, align 8, !tbaa !17
  br label %71

71:                                               ; preds = %129, %68
  %72 = load i32, ptr %12, align 4, !tbaa !19
  %73 = icmp ne i32 %72, 0
  br i1 %73, label %74, label %130

74:                                               ; preds = %71
  %75 = load ptr, ptr %14, align 8, !tbaa !17
  %76 = call i32 @Vec_PtrSize(ptr noundef %75)
  %77 = icmp sgt i32 %76, 0
  %78 = zext i1 %77 to i32
  store i32 %78, ptr %12, align 4, !tbaa !19
  store i32 0, ptr %10, align 4, !tbaa !19
  br label %79

79:                                               ; preds = %126, %74
  %80 = load i32, ptr %10, align 4, !tbaa !19
  %81 = load i32, ptr %7, align 4, !tbaa !19
  %82 = icmp slt i32 %80, %81
  br i1 %82, label %83, label %129

83:                                               ; preds = %79
  %84 = load i32, ptr %10, align 4, !tbaa !19
  %85 = sext i32 %84 to i64
  %86 = getelementptr inbounds [100 x %struct.Cmd_AutoData_t_], ptr %8, i64 0, i64 %85
  %87 = getelementptr inbounds nuw %struct.Cmd_AutoData_t_, ptr %86, i32 0, i32 4
  %88 = load i32, ptr %87, align 8, !tbaa !37
  %89 = icmp ne i32 %88, 0
  br i1 %89, label %90, label %91

90:                                               ; preds = %83
  store i32 1, ptr %12, align 4, !tbaa !19
  br label %126

91:                                               ; preds = %83
  %92 = load i32, ptr %10, align 4, !tbaa !19
  %93 = sext i32 %92 to i64
  %94 = getelementptr inbounds [100 x %struct.Cmd_AutoData_t_], ptr %8, i64 0, i64 %93
  %95 = getelementptr inbounds nuw %struct.Cmd_AutoData_t_, ptr %94, i32 0, i32 0
  %96 = load ptr, ptr %95, align 16, !tbaa !33
  %97 = icmp ne ptr %96, null
  br i1 %97, label %98, label %110

98:                                               ; preds = %91
  %99 = load i32, ptr %10, align 4, !tbaa !19
  %100 = sext i32 %99 to i64
  %101 = getelementptr inbounds [100 x %struct.Cmd_AutoData_t_], ptr %8, i64 0, i64 %100
  %102 = getelementptr inbounds nuw %struct.Cmd_AutoData_t_, ptr %101, i32 0, i32 5
  %103 = load i32, ptr %102, align 4, !tbaa !36
  %104 = load i32, ptr %13, align 4, !tbaa !19
  %105 = add nsw i32 %104, %103
  store i32 %105, ptr %13, align 4, !tbaa !19
  %106 = load i32, ptr %10, align 4, !tbaa !19
  %107 = sext i32 %106 to i64
  %108 = getelementptr inbounds [100 x %struct.Cmd_AutoData_t_], ptr %8, i64 0, i64 %107
  %109 = getelementptr inbounds nuw %struct.Cmd_AutoData_t_, ptr %108, i32 0, i32 0
  store ptr null, ptr %109, align 16, !tbaa !33
  br label %110

110:                                              ; preds = %98, %91
  %111 = load ptr, ptr %14, align 8, !tbaa !17
  %112 = call i32 @Vec_PtrSize(ptr noundef %111)
  %113 = icmp eq i32 %112, 0
  br i1 %113, label %114, label %115

114:                                              ; preds = %110
  br label %126

115:                                              ; preds = %110
  %116 = load ptr, ptr %14, align 8, !tbaa !17
  %117 = call ptr @Vec_PtrPop(ptr noundef %116)
  %118 = load i32, ptr %10, align 4, !tbaa !19
  %119 = sext i32 %118 to i64
  %120 = getelementptr inbounds [100 x %struct.Cmd_AutoData_t_], ptr %8, i64 0, i64 %119
  %121 = getelementptr inbounds nuw %struct.Cmd_AutoData_t_, ptr %120, i32 0, i32 0
  store ptr %117, ptr %121, align 16, !tbaa !33
  %122 = load i32, ptr %10, align 4, !tbaa !19
  %123 = sext i32 %122 to i64
  %124 = getelementptr inbounds [100 x %struct.Cmd_AutoData_t_], ptr %8, i64 0, i64 %123
  %125 = getelementptr inbounds nuw %struct.Cmd_AutoData_t_, ptr %124, i32 0, i32 4
  store i32 1, ptr %125, align 8, !tbaa !37
  br label %126

126:                                              ; preds = %115, %114, %90
  %127 = load i32, ptr %10, align 4, !tbaa !19
  %128 = add nsw i32 %127, 1
  store i32 %128, ptr %10, align 4, !tbaa !19
  br label %79, !llvm.loop !41

129:                                              ; preds = %79
  br label %71, !llvm.loop !42

130:                                              ; preds = %71
  %131 = load ptr, ptr %14, align 8, !tbaa !17
  call void @Vec_PtrFree(ptr noundef %131)
  store i32 0, ptr %10, align 4, !tbaa !19
  br label %132

132:                                              ; preds = %145, %130
  %133 = load i32, ptr %10, align 4, !tbaa !19
  %134 = load i32, ptr %7, align 4, !tbaa !19
  %135 = icmp slt i32 %133, %134
  br i1 %135, label %136, label %148

136:                                              ; preds = %132
  %137 = load i32, ptr %10, align 4, !tbaa !19
  %138 = sext i32 %137 to i64
  %139 = getelementptr inbounds [100 x %struct.Cmd_AutoData_t_], ptr %8, i64 0, i64 %138
  %140 = getelementptr inbounds nuw %struct.Cmd_AutoData_t_, ptr %139, i32 0, i32 0
  store ptr null, ptr %140, align 16, !tbaa !33
  %141 = load i32, ptr %10, align 4, !tbaa !19
  %142 = sext i32 %141 to i64
  %143 = getelementptr inbounds [100 x %struct.Cmd_AutoData_t_], ptr %8, i64 0, i64 %142
  %144 = getelementptr inbounds nuw %struct.Cmd_AutoData_t_, ptr %143, i32 0, i32 4
  store i32 1, ptr %144, align 8, !tbaa !37
  br label %145

145:                                              ; preds = %136
  %146 = load i32, ptr %10, align 4, !tbaa !19
  %147 = add nsw i32 %146, 1
  store i32 %147, ptr %10, align 4, !tbaa !19
  br label %132, !llvm.loop !43

148:                                              ; preds = %132
  %149 = load i32, ptr %13, align 4, !tbaa !19
  store i32 %149, ptr %4, align 4
  store i32 1, ptr %15, align 4
  br label %150

150:                                              ; preds = %148, %18
  call void @llvm.lifetime.end.p0(i64 8, ptr %14) #14
  call void @llvm.lifetime.end.p0(i64 4, ptr %13) #14
  call void @llvm.lifetime.end.p0(i64 4, ptr %12) #14
  call void @llvm.lifetime.end.p0(i64 4, ptr %11) #14
  call void @llvm.lifetime.end.p0(i64 4, ptr %10) #14
  call void @llvm.lifetime.end.p0(i64 800, ptr %9) #14
  call void @llvm.lifetime.end.p0(i64 3200, ptr %8) #14
  %151 = load i32, ptr %4, align 4
  ret i32 %151
}