; Function Attrs: nounwind uwtable
define i32 @Cmd_RunAutoTunerEval(ptr noundef readonly captures(none) %0, ptr noundef %1, i32 noundef %2) local_unnamed_addr #2 {
  %4 = alloca [100 x %struct.Cmd_AutoData_t_], align 16
  %5 = alloca [100 x i64], align 16
  call void @llvm.lifetime.start.p0(i64 3200, ptr nonnull %4) #22
  call void @llvm.lifetime.start.p0(i64 800, ptr nonnull %5) #22
  %6 = icmp eq i32 %2, 1
  br i1 %6, label %7, label %18

7:                                                ; preds = %3
  %8 = getelementptr i8, ptr %0, i64 4
  %.val10.i = load i32, ptr %8, align 4, !tbaa !14
  %9 = icmp sgt i32 %.val10.i, 0
  br i1 %9, label %.lr.ph.i, label %Cmd_RunAutoTunerEvalSimple.exit

.lr.ph.i:                                         ; preds = %7
  %10 = getelementptr i8, ptr %0, i64 8
  br label %11

11:                                               ; preds = %11, %.lr.ph.i
  %indvars.iv.i = phi i64 [ 0, %.lr.ph.i ], [ %indvars.iv.next.i, %11 ]
  %.012.i = phi i32 [ 0, %.lr.ph.i ], [ %15, %11 ]
  %.val9.i = load ptr, ptr %10, align 8, !tbaa !17
  %12 = getelementptr inbounds nuw ptr, ptr %.val9.i, i64 %indvars.iv.i
  %13 = load ptr, ptr %12, align 8, !tbaa !18
  %14 = tail call i32 @Gia_ManSatokoCallOne(ptr noundef %13, ptr noundef %1, i32 noundef -1) #22
  %15 = add nsw i32 %14, %.012.i
  %indvars.iv.next.i = add nuw nsw i64 %indvars.iv.i, 1
  %.val.i = load i32, ptr %8, align 4, !tbaa !14
  %16 = sext i32 %.val.i to i64
  %17 = icmp slt i64 %indvars.iv.next.i, %16
  br i1 %17, label %11, label %Cmd_RunAutoTunerEvalSimple.exit, !llvm.loop !19

18:                                               ; preds = %3
  %19 = add i32 %2, -1
  %20 = icmp sgt i32 %2, 1
  br i1 %20, label %.lr.ph.preheader, label %._crit_edge

.lr.ph.preheader:                                 ; preds = %18
  %wide.trip.count = zext nneg i32 %19 to i64
  br label %.lr.ph

.lr.ph:                                           ; preds = %.lr.ph.preheader, %.lr.ph
  %indvars.iv = phi i64 [ 0, %.lr.ph.preheader ], [ %indvars.iv.next, %.lr.ph ]
  %21 = getelementptr inbounds nuw [100 x %struct.Cmd_AutoData_t_], ptr %4, i64 0, i64 %indvars.iv
  store ptr null, ptr %21, align 16, !tbaa !23
  %22 = getelementptr inbounds nuw i8, ptr %21, i64 8
  store ptr %1, ptr %22, align 8, !tbaa !27
  %23 = getelementptr inbounds nuw i8, ptr %21, i64 16
  %24 = trunc nuw nsw i64 %indvars.iv to i32
  store i32 %24, ptr %23, align 16, !tbaa !30
  %25 = getelementptr inbounds nuw i8, ptr %21, i64 20
  store i32 -1, ptr %25, align 4, !tbaa !31
  %26 = getelementptr inbounds nuw i8, ptr %21, i64 24
  store i32 0, ptr %26, align 8, !tbaa !29
  %27 = getelementptr inbounds nuw i8, ptr %21, i64 28
  store i32 -1, ptr %27, align 4, !tbaa !28
  %28 = getelementptr inbounds nuw i64, ptr %5, i64 %indvars.iv
  %29 = call i32 @pthread_create(ptr noundef nonnull %28, ptr noundef null, ptr noundef nonnull @Cmd_RunAutoTunerEvalWorkerThread, ptr noundef nonnull %21) #22
  %indvars.iv.next = add nuw nsw i64 %indvars.iv, 1
  %exitcond.not = icmp eq i64 %indvars.iv.next, %wide.trip.count
  br i1 %exitcond.not, label %._crit_edge, label %.lr.ph, !llvm.loop !32

._crit_edge:                                      ; preds = %.lr.ph, %18
  %30 = getelementptr inbounds nuw i8, ptr %0, i64 4
  %31 = load i32, ptr %30, align 4, !tbaa !14
  %32 = load i32, ptr %0, align 8, !tbaa !33
  %.not.i = icmp eq i32 %32, 0
  br i1 %.not.i, label %Vec_PtrDup.exit, label %33

33:                                               ; preds = %._crit_edge
  %34 = sext i32 %32 to i64
  %35 = shl nsw i64 %34, 3
  %36 = call noalias ptr @malloc(i64 noundef %35) #24
  br label %Vec_PtrDup.exit

Vec_PtrDup.exit:                                  ; preds = %._crit_edge, %33
  %37 = phi ptr [ %36, %33 ], [ null, %._crit_edge ]
  %38 = getelementptr inbounds nuw i8, ptr %0, i64 8
  %39 = load ptr, ptr %38, align 8, !tbaa !17
  %40 = sext i32 %31 to i64
  %41 = shl nsw i64 %40, 3
  call void @llvm.memcpy.p0.p0.i64(ptr align 8 %37, ptr align 8 %39, i64 %41, i1 false)
  br i1 %20, label %.lr.ph58.us.preheader, label %Vec_PtrDup.exit.split

.lr.ph58.us.preheader:                            ; preds = %Vec_PtrDup.exit
  %wide.trip.count72 = zext i32 %19 to i64
  br label %.lr.ph58.us

.lr.ph58.us:                                      ; preds = %.lr.ph58.us.preheader, %..loopexit_crit_edge.us
  %.03962.us = phi i32 [ %.2.us, %..loopexit_crit_edge.us ], [ 0, %.lr.ph58.us.preheader ]
  %42 = phi i32 [ %64, %..loopexit_crit_edge.us ], [ %31, %.lr.ph58.us.preheader ]
  %43 = icmp sgt i32 %42, 0
  %44 = zext i1 %43 to i32
  br label %45

45:                                               ; preds = %.lr.ph58.us, %63
  %indvars.iv69 = phi i64 [ 0, %.lr.ph58.us ], [ %indvars.iv.next70, %63 ]
  %46 = phi i32 [ %42, %.lr.ph58.us ], [ %64, %63 ]
  %.156.us = phi i32 [ %.03962.us, %.lr.ph58.us ], [ %.2.us, %63 ]
  %.14155.us = phi i32 [ %44, %.lr.ph58.us ], [ %.242.us, %63 ]
  %47 = getelementptr inbounds nuw [100 x %struct.Cmd_AutoData_t_], ptr %4, i64 0, i64 %indvars.iv69
  %48 = getelementptr inbounds nuw i8, ptr %47, i64 24
  %49 = load i32, ptr %48, align 8, !tbaa !29
  %.not48.us = icmp eq i32 %49, 0
  br i1 %.not48.us, label %50, label %63

50:                                               ; preds = %45
  %51 = load ptr, ptr %47, align 16, !tbaa !23
  %.not49.us = icmp eq ptr %51, null
  br i1 %.not49.us, label %56, label %52

52:                                               ; preds = %50
  %53 = getelementptr inbounds nuw i8, ptr %47, i64 28
  %54 = load i32, ptr %53, align 4, !tbaa !28
  %55 = add nsw i32 %54, %.156.us
  store ptr null, ptr %47, align 16, !tbaa !23
  br label %56

56:                                               ; preds = %52, %50
  %.3.us = phi i32 [ %55, %52 ], [ %.156.us, %50 ]
  %57 = icmp eq i32 %46, 0
  br i1 %57, label %63, label %58

58:                                               ; preds = %56
  %59 = add nsw i32 %46, -1
  %60 = sext i32 %59 to i64
  %61 = getelementptr inbounds ptr, ptr %37, i64 %60
  %62 = load ptr, ptr %61, align 8, !tbaa !18
  store ptr %62, ptr %47, align 16, !tbaa !23
  store i32 1, ptr %48, align 8, !tbaa !29
  br label %63

63:                                               ; preds = %58, %56, %45
  %64 = phi i32 [ 0, %56 ], [ %59, %58 ], [ %46, %45 ]
  %.242.us = phi i32 [ %.14155.us, %56 ], [ %.14155.us, %58 ], [ 1, %45 ]
  %.2.us = phi i32 [ %.3.us, %56 ], [ %.3.us, %58 ], [ %.156.us, %45 ]
  %indvars.iv.next70 = add nuw nsw i64 %indvars.iv69, 1
  %exitcond73.not = icmp eq i64 %indvars.iv.next70, %wide.trip.count72
  br i1 %exitcond73.not, label %..loopexit_crit_edge.us, label %45, !llvm.loop !34

..loopexit_crit_edge.us:                          ; preds = %63
  %.not.us = icmp eq i32 %.242.us, 0
  br i1 %.not.us, label %.split.us, label %.lr.ph58.us, !llvm.loop !35

Vec_PtrDup.exit.split:                            ; preds = %Vec_PtrDup.exit
  %65 = icmp slt i32 %31, 1
  br i1 %65, label %.split.us, label %.loopexit, !llvm.loop !35

.loopexit:                                        ; preds = %Vec_PtrDup.exit.split, %.loopexit
  br label %.loopexit

.split.us:                                        ; preds = %..loopexit_crit_edge.us, %Vec_PtrDup.exit.split
  %.us-phi63 = phi i32 [ 0, %Vec_PtrDup.exit.split ], [ %.2.us, %..loopexit_crit_edge.us ]
  %.not.i51 = icmp eq ptr %37, null
  br i1 %.not.i51, label %Vec_PtrFree.exit, label %66

66:                                               ; preds = %.split.us
  call void @free(ptr noundef nonnull %37) #22
  br label %Vec_PtrFree.exit

Vec_PtrFree.exit:                                 ; preds = %.split.us, %66
  br i1 %20, label %.lr.ph65.preheader, label %Cmd_RunAutoTunerEvalSimple.exit

.lr.ph65.preheader:                               ; preds = %Vec_PtrFree.exit
  %wide.trip.count77 = zext nneg i32 %19 to i64
  br label %.lr.ph65

.lr.ph65:                                         ; preds = %.lr.ph65.preheader, %.lr.ph65
  %indvars.iv74 = phi i64 [ 0, %.lr.ph65.preheader ], [ %indvars.iv.next75, %.lr.ph65 ]
  %67 = getelementptr inbounds nuw [100 x %struct.Cmd_AutoData_t_], ptr %4, i64 0, i64 %indvars.iv74
  store ptr null, ptr %67, align 16, !tbaa !23
  %68 = getelementptr inbounds nuw i8, ptr %67, i64 24
  store i32 1, ptr %68, align 8, !tbaa !29
  %indvars.iv.next75 = add nuw nsw i64 %indvars.iv74, 1
  %exitcond78.not = icmp eq i64 %indvars.iv.next75, %wide.trip.count77
  br i1 %exitcond78.not, label %Cmd_RunAutoTunerEvalSimple.exit, label %.lr.ph65, !llvm.loop !36

Cmd_RunAutoTunerEvalSimple.exit:                  ; preds = %.lr.ph65, %11, %Vec_PtrFree.exit, %7
  %.0 = phi i32 [ 0, %7 ], [ %.us-phi63, %Vec_PtrFree.exit ], [ %15, %11 ], [ %.us-phi63, %.lr.ph65 ]
  call void @llvm.lifetime.end.p0(i64 800, ptr nonnull %5) #22
  call void @llvm.lifetime.end.p0(i64 3200, ptr nonnull %4) #22
  ret i32 %.0
}